(dp0
I1
(dp1
I2
I1
sI3
I3
sI5
I2
ssI2
(dp2
I1
I1
sI3
I2
sI4
I4
sI6
I3
ssI3
(dp3
I1
I3
sI2
I1
sI4
I2
ssI4
(dp4
I2
I4
sI3
I1
sI5
I2
sI6
I3
ssI5
(dp5
I1
I4
sI4
I1
sI6
I2
sI7
I3
ssI6
(dp6
I2
I3
sI4
I4
sI5
I1
sI7
I2
ssI7
(dp7
I8
I2
sI5
I3
sI6
I1
ssI8
(dp8
I7
I1
ss.