ccopy_reg
_reconstructor
p0
(cnetworkx.classes.graph
Graph
p1
c__builtin__
object
p2
Ntp3
Rp4
(dp5
S'adjlist_inner_dict_factory'
p6
c__builtin__
dict
p7
sS'node_dict_factory'
p8
g7
sS'edge_attr_dict_factory'
p9
g7
sS'_node'
p10
(dp11
I1
(dp12
sI2
(dp13
sI3
(dp14
sI4
(dp15
sI5
(dp16
sI6
(dp17
sI7
(dp18
sI8
(dp19
sS'10.0.0.8'
p20
(dp21
sS'10.0.0.5'
p22
(dp23
sS'10.0.0.4'
p24
(dp25
sS'10.0.0.7'
p26
(dp27
sS'10.0.0.6'
p28
(dp29
sS'10.0.0.1'
p30
(dp31
sS'10.0.0.3'
p32
(dp33
sS'10.0.0.2'
p34
(dp35
ssS'graph'
p36
(dp37
sS'root_graph'
p38
g4
sS'_adj'
p39
(dp40
I1
(dp41
I2
(dp42
sI3
(dp43
sS'10.0.0.1'
p44
(dp45
sI5
(dp46
ssI2
(dp47
I1
g42
sI3
(dp48
sI4
(dp49
sI6
(dp50
sS'10.0.0.2'
p51
(dp52
ssI3
(dp53
I1
g43
sI2
g48
sI4
(dp54
sS'10.0.0.3'
p55
(dp56
ssI4
(dp57
S'10.0.0.4'
p58
(dp59
sI2
g49
sI3
g54
sI5
(dp60
sI6
(dp61
ssI5
(dp62
S'10.0.0.5'
p63
(dp64
sI1
g46
sI4
g60
sI6
(dp65
sI7
(dp66
ssI6
(dp67
I2
g50
sS'10.0.0.6'
p68
(dp69
sI4
g61
sI5
g65
sI7
(dp70
ssI7
(dp71
I8
(dp72
sS'10.0.0.7'
p73
(dp74
sI5
g66
sI6
g70
ssI8
(dp75
S'10.0.0.8'
p76
(dp77
sI7
g72
ssg20
(dp78
I8
g77
ssg22
(dp79
I5
g64
ssg24
(dp80
I4
g59
ssg26
(dp81
I7
g74
ssg28
(dp82
I6
g69
ssg30
(dp83
I1
g45
ssg32
(dp84
I3
g56
ssg34
(dp85
I2
g52
sssS'adjlist_outer_dict_factory'
p86
g7
sb.